; ModuleID = '19/2618.c'
source_filename = "19/2618.c"
target datalayout = "e-m:e-p270:32:32-p271:32:32-p272:64:64-i64:64-f80:128-n8:16:32:64-S128"
target triple = "x86_64-pc-linux-gnu"

@.str = private unnamed_addr constant [3 x i8] c"%s\00", align 1
@.str.1 = private unnamed_addr constant [4 x i8] c"%s \00", align 1
@.str.2 = private unnamed_addr constant [4 x i8] c"%s\0A\00", align 1

; Function Attrs: noinline nounwind uwtable
define dso_local i32 @main() #0 {
  %1 = alloca i32, align 4
  %2 = alloca [100 x i8], align 16
  %3 = alloca [100 x [100 x i8]], align 16
  %4 = alloca [100 x i8], align 16
  %5 = alloca [100 x i8], align 16
  %6 = alloca i32, align 4
  %7 = alloca i32, align 4
  %8 = alloca i32, align 4
  %9 = alloca i32, align 4
  store i32 0, i32* %1, align 4
  %10 = getelementptr inbounds [100 x i8], [100 x i8]* %2, i64 0, i64 0
  %11 = call i32 (i8*, ...) bitcast (i32 (...)* @gets to i32 (i8*, ...)*)(i8* %10)
  %12 = getelementptr inbounds [100 x i8], [100 x i8]* %4, i64 0, i64 0
  %13 = call i32 (i8*, ...) @__isoc99_scanf(i8* getelementptr inbounds ([3 x i8], [3 x i8]* @.str, i64 0, i64 0), i8* %12)
  %14 = getelementptr inbounds [100 x i8], [100 x i8]* %5, i64 0, i64 0
  %15 = call i32 (i8*, ...) @__isoc99_scanf(i8* getelementptr inbounds ([3 x i8], [3 x i8]* @.str, i64 0, i64 0), i8* %14)
  %16 = getelementptr inbounds [100 x i8], [100 x i8]* %2, i64 0, i64 0
  %17 = call i64 @strlen(i8* %16) #4
  %18 = trunc i64 %17 to i32
  store i32 %18, i32* %6, align 4
  store i32 0, i32* %7, align 4
  store i32 0, i32* %9, align 4
  store i32 0, i32* %8, align 4
  br label %19

19:                                               ; preds = %71, %0
  %20 = load i32, i32* %8, align 4
  %21 = load i32, i32* %6, align 4
  %22 = icmp sle i32 %20, %21
  br i1 %22, label %23, label %74

23:                                               ; preds = %19
  %24 = load i32, i32* %8, align 4
  %25 = sext i32 %24 to i64
  %26 = getelementptr inbounds [100 x i8], [100 x i8]* %2, i64 0, i64 %25
  %27 = load i8, i8* %26, align 1
  %28 = sext i8 %27 to i32
  %29 = icmp eq i32 %28, 32
  br i1 %29, label %44, label %30

30:                                               ; preds = %23
  %31 = load i32, i32* %8, align 4
  %32 = sext i32 %31 to i64
  %33 = getelementptr inbounds [100 x i8], [100 x i8]* %2, i64 0, i64 %32
  %34 = load i8, i8* %33, align 1
  %35 = sext i8 %34 to i32
  %36 = icmp eq i32 %35, 44
  br i1 %36, label %44, label %37

37:                                               ; preds = %30
  %38 = load i32, i32* %8, align 4
  %39 = sext i32 %38 to i64
  %40 = getelementptr inbounds [100 x i8], [100 x i8]* %2, i64 0, i64 %39
  %41 = load i8, i8* %40, align 1
  %42 = sext i8 %41 to i32
  %43 = icmp eq i32 %42, 0
  br i1 %43, label %44, label %57

44:                                               ; preds = %37, %30, %23
  %45 = load i32, i32* %9, align 4
  %46 = icmp ne i32 %45, 0
  br i1 %46, label %47, label %56

47:                                               ; preds = %44
  %48 = load i32, i32* %7, align 4
  %49 = sext i32 %48 to i64
  %50 = getelementptr inbounds [100 x [100 x i8]], [100 x [100 x i8]]* %3, i64 0, i64 %49
  %51 = load i32, i32* %9, align 4
  %52 = sext i32 %51 to i64
  %53 = getelementptr inbounds [100 x i8], [100 x i8]* %50, i64 0, i64 %52
  store i8 0, i8* %53, align 1
  %54 = load i32, i32* %7, align 4
  %55 = add nsw i32 %54, 1
  store i32 %55, i32* %7, align 4
  br label %56

56:                                               ; preds = %47, %44
  store i32 0, i32* %9, align 4
  br label %70

57:                                               ; preds = %37
  %58 = load i32, i32* %8, align 4
  %59 = sext i32 %58 to i64
  %60 = getelementptr inbounds [100 x i8], [100 x i8]* %2, i64 0, i64 %59
  %61 = load i8, i8* %60, align 1
  %62 = load i32, i32* %7, align 4
  %63 = sext i32 %62 to i64
  %64 = getelementptr inbounds [100 x [100 x i8]], [100 x [100 x i8]]* %3, i64 0, i64 %63
  %65 = load i32, i32* %9, align 4
  %66 = sext i32 %65 to i64
  %67 = getelementptr inbounds [100 x i8], [100 x i8]* %64, i64 0, i64 %66
  store i8 %61, i8* %67, align 1
  %68 = load i32, i32* %9, align 4
  %69 = add nsw i32 %68, 1
  store i32 %69, i32* %9, align 4
  br label %70

70:                                               ; preds = %57, %56
  br label %71

71:                                               ; preds = %70
  %72 = load i32, i32* %8, align 4
  %73 = add nsw i32 %72, 1
  store i32 %73, i32* %8, align 4
  br label %19

74:                                               ; preds = %19
  store i32 0, i32* %8, align 4
  br label %75

75:                                               ; preds = %101, %74
  %76 = load i32, i32* %8, align 4
  %77 = load i32, i32* %7, align 4
  %78 = sub nsw i32 %77, 1
  %79 = icmp slt i32 %76, %78
  br i1 %79, label %80, label %104

80:                                               ; preds = %75
  %81 = load i32, i32* %8, align 4
  %82 = sext i32 %81 to i64
  %83 = getelementptr inbounds [100 x [100 x i8]], [100 x [100 x i8]]* %3, i64 0, i64 %82
  %84 = getelementptr inbounds [100 x i8], [100 x i8]* %83, i64 0, i64 0
  %85 = getelementptr inbounds [100 x i8], [100 x i8]* %4, i64 0, i64 0
  %86 = call i32 @strcmp(i8* %84, i8* %85) #4
  %87 = icmp eq i32 %86, 0
  br i1 %87, label %88, label %95

88:                                               ; preds = %80
  %89 = load i32, i32* %8, align 4
  %90 = sext i32 %89 to i64
  %91 = getelementptr inbounds [100 x [100 x i8]], [100 x [100 x i8]]* %3, i64 0, i64 %90
  %92 = getelementptr inbounds [100 x i8], [100 x i8]* %91, i64 0, i64 0
  %93 = getelementptr inbounds [100 x i8], [100 x i8]* %5, i64 0, i64 0
  %94 = call i8* @strcpy(i8* %92, i8* %93) #5
  br label %95

95:                                               ; preds = %88, %80
  %96 = load i32, i32* %8, align 4
  %97 = sext i32 %96 to i64
  %98 = getelementptr inbounds [100 x [100 x i8]], [100 x [100 x i8]]* %3, i64 0, i64 %97
  %99 = getelementptr inbounds [100 x i8], [100 x i8]* %98, i64 0, i64 0
  %100 = call i32 (i8*, ...) @printf(i8* getelementptr inbounds ([4 x i8], [4 x i8]* @.str.1, i64 0, i64 0), i8* %99)
  br label %101

101:                                              ; preds = %95
  %102 = load i32, i32* %8, align 4
  %103 = add nsw i32 %102, 1
  store i32 %103, i32* %8, align 4
  br label %75

104:                                              ; preds = %75
  %105 = load i32, i32* %8, align 4
  %106 = sext i32 %105 to i64
  %107 = getelementptr inbounds [100 x [100 x i8]], [100 x [100 x i8]]* %3, i64 0, i64 %106
  %108 = getelementptr inbounds [100 x i8], [100 x i8]* %107, i64 0, i64 0
  %109 = getelementptr inbounds [100 x i8], [100 x i8]* %4, i64 0, i64 0
  %110 = call i32 @strcmp(i8* %108, i8* %109) #4
  %111 = icmp eq i32 %110, 0
  br i1 %111, label %112, label %119

112:                                              ; preds = %104
  %113 = load i32, i32* %8, align 4
  %114 = sext i32 %113 to i64
  %115 = getelementptr inbounds [100 x [100 x i8]], [100 x [100 x i8]]* %3, i64 0, i64 %114
  %116 = getelementptr inbounds [100 x i8], [100 x i8]* %115, i64 0, i64 0
  %117 = getelementptr inbounds [100 x i8], [100 x i8]* %5, i64 0, i64 0
  %118 = call i8* @strcpy(i8* %116, i8* %117) #5
  br label %119

119:                                              ; preds = %112, %104
  %120 = load i32, i32* %8, align 4
  %121 = sext i32 %120 to i64
  %122 = getelementptr inbounds [100 x [100 x i8]], [100 x [100 x i8]]* %3, i64 0, i64 %121
  %123 = getelementptr inbounds [100 x i8], [100 x i8]* %122, i64 0, i64 0
  %124 = call i32 (i8*, ...) @printf(i8* getelementptr inbounds ([4 x i8], [4 x i8]* @.str.2, i64 0, i64 0), i8* %123)
  ret i32 0
}

declare dso_local i32 @gets(...) #1

declare dso_local i32 @__isoc99_scanf(i8*, ...) #1

; Function Attrs: nounwind readonly
declare dso_local i64 @strlen(i8*) #2

; Function Attrs: nounwind readonly
declare dso_local i32 @strcmp(i8*, i8*) #2

; Function Attrs: nounwind
declare dso_local i8* @strcpy(i8*, i8*) #3

declare dso_local i32 @printf(i8*, ...) #1


!llvm.module.flags = !{!0}
!llvm.ident = !{!1}

!0 = !{i32 1, !"wchar_size", i32 4}
!1 = !{!"clang version 10.0.0-4ubuntu1 "}
