; ModuleID = 'source-C-CXX/18/2618.c'
source_filename = "source-C-CXX/18/2618.c"
target datalayout = "e-m:e-p270:32:32-p271:32:32-p272:64:64-i64:64-f80:128-n8:16:32:64-S128"
target triple = "x86_64-pc-linux-gnu"

@.str = private unnamed_addr constant [3 x i8] c"%s\00", align 1
@.str.1 = private unnamed_addr constant [4 x i8] c"%s \00", align 1

; Function Attrs: nounwind sspstrong uwtable
define dso_local i32 @main() local_unnamed_addr #0 {
  %1 = alloca [100 x i8], align 16
  %2 = alloca [100 x [100 x i8]], align 16
  %3 = alloca [100 x i8], align 16
  %4 = alloca [100 x i8], align 16
  %5 = getelementptr inbounds [100 x i8], [100 x i8]* %1, i64 0, i64 0
  call void @llvm.lifetime.start.p0i8(i64 100, i8* nonnull %5) #7
  %6 = getelementptr inbounds [100 x [100 x i8]], [100 x [100 x i8]]* %2, i64 0, i64 0, i64 0
  call void @llvm.lifetime.start.p0i8(i64 10000, i8* nonnull %6) #7
  %7 = getelementptr inbounds [100 x i8], [100 x i8]* %3, i64 0, i64 0
  call void @llvm.lifetime.start.p0i8(i64 100, i8* nonnull %7) #7
  %8 = getelementptr inbounds [100 x i8], [100 x i8]* %4, i64 0, i64 0
  call void @llvm.lifetime.start.p0i8(i64 100, i8* nonnull %8) #7
  %9 = call i32 (i8*, ...) bitcast (i32 (...)* @gets to i32 (i8*, ...)*)(i8* nonnull %5) #7
  %10 = call i32 (i8*, ...) @__isoc99_scanf(i8* getelementptr inbounds ([3 x i8], [3 x i8]* @.str, i64 0, i64 0), i8* nonnull %7)
  %11 = call i32 (i8*, ...) @__isoc99_scanf(i8* getelementptr inbounds ([3 x i8], [3 x i8]* @.str, i64 0, i64 0), i8* nonnull %8)
  %12 = call i64 @strlen(i8* noundef nonnull %5) #8
  %13 = trunc i64 %12 to i32
  %14 = icmp slt i32 %13, 0
  br i1 %14, label %59, label %15

15:                                               ; preds = %0
  %16 = add i64 %12, 1
  %17 = and i64 %16, 4294967295
  br label %23

18:                                               ; preds = %41
  %19 = icmp sgt i32 %42, 1
  br i1 %19, label %20, label %59

20:                                               ; preds = %18
  %21 = add nsw i32 %42, -1
  %22 = zext i32 %21 to i64
  br label %46

23:                                               ; preds = %15, %41
  %24 = phi i64 [ 0, %15 ], [ %44, %41 ]
  %25 = phi i32 [ 0, %15 ], [ %43, %41 ]
  %26 = phi i32 [ 0, %15 ], [ %42, %41 ]
  %27 = getelementptr inbounds [100 x i8], [100 x i8]* %1, i64 0, i64 %24
  %28 = load i8, i8* %27, align 1, !tbaa !5
  switch i8 %28, label %36 [
    i8 32, label %29
    i8 44, label %29
    i8 0, label %29
  ]

29:                                               ; preds = %23, %23, %23
  %30 = icmp eq i32 %25, 0
  br i1 %30, label %41, label %31

31:                                               ; preds = %29
  %32 = sext i32 %26 to i64
  %33 = sext i32 %25 to i64
  %34 = getelementptr inbounds [100 x [100 x i8]], [100 x [100 x i8]]* %2, i64 0, i64 %32, i64 %33
  store i8 0, i8* %34, align 1, !tbaa !5
  %35 = add nsw i32 %26, 1
  br label %41

36:                                               ; preds = %23
  %37 = sext i32 %26 to i64
  %38 = sext i32 %25 to i64
  %39 = getelementptr inbounds [100 x [100 x i8]], [100 x [100 x i8]]* %2, i64 0, i64 %37, i64 %38
  store i8 %28, i8* %39, align 1, !tbaa !5
  %40 = add nsw i32 %25, 1
  br label %41

41:                                               ; preds = %29, %31, %36
  %42 = phi i32 [ %26, %36 ], [ %35, %31 ], [ %26, %29 ]
  %43 = phi i32 [ %40, %36 ], [ 0, %31 ], [ 0, %29 ]
  %44 = add nuw nsw i64 %24, 1
  %45 = icmp eq i64 %44, %17
  br i1 %45, label %18, label %23, !llvm.loop !8

46:                                               ; preds = %20, %53
  %47 = phi i64 [ 0, %20 ], [ %55, %53 ]
  %48 = getelementptr inbounds [100 x [100 x i8]], [100 x [100 x i8]]* %2, i64 0, i64 %47, i64 0
  %49 = call i32 @strcmp(i8* noundef nonnull %48, i8* noundef nonnull %7) #8
  %50 = icmp eq i32 %49, 0
  br i1 %50, label %51, label %53

51:                                               ; preds = %46
  %52 = call i8* @strcpy(i8* noundef nonnull %48, i8* noundef nonnull %8) #7
  br label %53

53:                                               ; preds = %51, %46
  %54 = call i32 (i8*, ...) @printf(i8* nonnull dereferenceable(1) getelementptr inbounds ([4 x i8], [4 x i8]* @.str.1, i64 0, i64 0), i8* nonnull %48)
  %55 = add nuw nsw i64 %47, 1
  %56 = icmp eq i64 %55, %22
  br i1 %56, label %57, label %46, !llvm.loop !10

57:                                               ; preds = %53
  %58 = zext i32 %21 to i64
  br label %59

59:                                               ; preds = %0, %18, %57
  %60 = phi i64 [ %58, %57 ], [ 0, %18 ], [ 0, %0 ]
  %61 = getelementptr inbounds [100 x [100 x i8]], [100 x [100 x i8]]* %2, i64 0, i64 %60, i64 0
  %62 = call i32 @strcmp(i8* noundef nonnull %61, i8* noundef nonnull %7) #8
  %63 = icmp eq i32 %62, 0
  br i1 %63, label %64, label %66

64:                                               ; preds = %59
  %65 = call i8* @strcpy(i8* noundef nonnull %61, i8* noundef nonnull %8) #7
  br label %66

66:                                               ; preds = %64, %59
  %67 = call i32 @puts(i8* nonnull %61)
  call void @llvm.lifetime.end.p0i8(i64 100, i8* nonnull %8) #7
  call void @llvm.lifetime.end.p0i8(i64 100, i8* nonnull %7) #7
  call void @llvm.lifetime.end.p0i8(i64 10000, i8* nonnull %6) #7
  call void @llvm.lifetime.end.p0i8(i64 100, i8* nonnull %5) #7
  ret i32 0
}

; Function Attrs: argmemonly mustprogress nofree nosync nounwind willreturn
declare void @llvm.lifetime.start.p0i8(i64 immarg, i8* nocapture) #1

declare i32 @gets(...) local_unnamed_addr #2

; Function Attrs: nofree nounwind
declare noundef i32 @__isoc99_scanf(i8* nocapture noundef readonly, ...) local_unnamed_addr #3

; Function Attrs: argmemonly mustprogress nofree nounwind readonly willreturn
declare i64 @strlen(i8* nocapture) local_unnamed_addr #4

; Function Attrs: argmemonly mustprogress nofree nounwind readonly willreturn
declare i32 @strcmp(i8* nocapture, i8* nocapture) local_unnamed_addr #4

; Function Attrs: argmemonly mustprogress nofree nounwind willreturn
declare i8* @strcpy(i8* noalias returned writeonly, i8* noalias nocapture readonly) local_unnamed_addr #5

; Function Attrs: nofree nounwind
declare noundef i32 @printf(i8* nocapture noundef readonly, ...) local_unnamed_addr #3

; Function Attrs: argmemonly mustprogress nofree nosync nounwind willreturn
declare void @llvm.lifetime.end.p0i8(i64 immarg, i8* nocapture) #1

; Function Attrs: nofree nounwind
declare noundef i32 @puts(i8* nocapture noundef readonly) local_unnamed_addr #6


!llvm.module.flags = !{!0, !1, !2, !3}
!llvm.ident = !{!4}

!0 = !{i32 1, !"wchar_size", i32 4}
!1 = !{i32 7, !"PIC Level", i32 2}
!2 = !{i32 7, !"PIE Level", i32 2}
!3 = !{i32 7, !"uwtable", i32 1}
!4 = !{!"clang version 13.0.0"}
!5 = !{!6, !6, i64 0}
!6 = !{!"omnipotent char", !7, i64 0}
!7 = !{!"Simple C/C++ TBAA"}
!8 = distinct !{!8, !9}
!9 = !{!"llvm.loop.mustprogress"}
!10 = distinct !{!10, !9}
